target datalayout = "e-m:e-p270:32:32-p271:32:32-p272:64:64-i64:64-i128:128-f80:128-n8:16:32:64-S128"
target triple = "x86_64-pc-linux-gnu"

%struct.prep_ops_t = type { ptr, ptr, ptr, ptr, ptr, ptr }
%struct.timeval = type { i64, i64 }

@g_context_cnt = internal global i32 -1, align 4
@ops = internal global ptr null, align 8
@.str.7 = private unnamed_addr constant [32 x i8] c"%s: pthread_rwlock_unlock(): %m\00", align 1
@.str.8 = private unnamed_addr constant [32 x i8] c"%s: pthread_rwlock_rdlock(): %m\00", align 1
@__func__.prep_g_epilog = private unnamed_addr constant [14 x i8] c"prep_g_epilog\00", align 1
@g_context_lock = internal global { { i32, i32, i32, i32, i32, i32, i32, i32, i8, [7 x i8], i64, i32, [4 x i8] } } zeroinitializer, align 8

; Function Attrs: nounwind uwtable
define dso_local i32 @prep_g_epilog(ptr noundef %0, ptr noundef %1) #0 {
  %3 = alloca ptr, align 8
  %4 = alloca ptr, align 8
  %5 = alloca %struct.timeval, align 8
  %6 = alloca %struct.timeval, align 8
  %7 = alloca [20 x i8], align 16
  %8 = alloca i64, align 8
  %9 = alloca i32, align 4
  %10 = alloca i32, align 4
  %11 = alloca i32, align 4
  %12 = alloca i32, align 4
  store ptr %0, ptr %3, align 8
  store ptr %1, ptr %4, align 8
  call void @llvm.lifetime.start.p0(i64 16, ptr %5) #7
  call void @llvm.lifetime.start.p0(i64 16, ptr %6) #7
  call void @llvm.lifetime.start.p0(i64 20, ptr %7) #7
  call void @llvm.memset.p0.i64(ptr align 16 %7, i8 0, i64 20, i1 false)
  call void @llvm.lifetime.start.p0(i64 8, ptr %8) #7
  call void @llvm.lifetime.start.p0(i64 4, ptr %9) #7
  store i32 0, ptr %9, align 4
  %13 = call i32 @gettimeofday(ptr noundef %5, ptr noundef null) #7
  br label %14

14:                                               ; preds = %2
  call void @llvm.lifetime.start.p0(i64 4, ptr %10) #7
  %15 = call i32 @pthread_rwlock_rdlock(ptr noundef @g_context_lock) #7
  store i32 %15, ptr %10, align 4
  %16 = load i32, ptr %10, align 4
  %17 = icmp ne i32 %16, 0
  br i1 %17, label %18, label %21

18:                                               ; preds = %14
  %19 = load i32, ptr %10, align 4
  %20 = call ptr @__errno_location() #8
  store i32 %19, ptr %20, align 4
  call void (ptr, ...) @fatal_abort(ptr noundef @.str.8, ptr noundef @__func__.prep_g_epilog) #9
  unreachable

21:                                               ; preds = %14
  call void @llvm.lifetime.end.p0(i64 4, ptr %10) #7
  br label %22

22:                                               ; preds = %21
  br label %23

23:                                               ; preds = %22
  call void @llvm.lifetime.start.p0(i64 4, ptr %11) #7
  store i32 0, ptr %11, align 4
  br label %24

24:                                               ; preds = %44, %23
  %25 = load i32, ptr %11, align 4
  %26 = load i32, ptr @g_context_cnt, align 4
  %27 = icmp slt i32 %25, %26
  br i1 %27, label %28, label %31

28:                                               ; preds = %24
  %29 = load i32, ptr %9, align 4
  %30 = icmp eq i32 %29, 0
  br label %31

31:                                               ; preds = %28, %24
  %32 = phi i1 [ false, %24 ], [ %30, %28 ]
  br i1 %32, label %34, label %33

33:                                               ; preds = %31
  call void @llvm.lifetime.end.p0(i64 4, ptr %11) #7
  br label %47

34:                                               ; preds = %31
  %35 = load ptr, ptr @ops, align 8
  %36 = load i32, ptr %11, align 4
  %37 = sext i32 %36 to i64
  %38 = getelementptr inbounds %struct.prep_ops_t, ptr %35, i64 %37
  %39 = getelementptr inbounds nuw %struct.prep_ops_t, ptr %38, i32 0, i32 2
  %40 = load ptr, ptr %39, align 8
  %41 = load ptr, ptr %3, align 8
  %42 = load ptr, ptr %4, align 8
  %43 = call i32 %40(ptr noundef %41, ptr noundef %42)
  store i32 %43, ptr %9, align 4
  br label %44

44:                                               ; preds = %34
  %45 = load i32, ptr %11, align 4
  %46 = add nsw i32 %45, 1
  store i32 %46, ptr %11, align 4
  br label %24, !llvm.loop !17

47:                                               ; preds = %33
  br label %48

48:                                               ; preds = %47
  call void @llvm.lifetime.start.p0(i64 4, ptr %12) #7
  %49 = call i32 @pthread_rwlock_unlock(ptr noundef @g_context_lock) #7
  store i32 %49, ptr %12, align 4
  %50 = load i32, ptr %12, align 4
  %51 = icmp ne i32 %50, 0
  br i1 %51, label %52, label %55

52:                                               ; preds = %48
  %53 = load i32, ptr %12, align 4
  %54 = call ptr @__errno_location() #8
  store i32 %53, ptr %54, align 4
  call void (ptr, ...) @fatal_abort(ptr noundef @.str.7, ptr noundef @__func__.prep_g_epilog) #9
  unreachable

55:                                               ; preds = %48
  call void @llvm.lifetime.end.p0(i64 4, ptr %12) #7
  br label %56

56:                                               ; preds = %55
  br label %57

57:                                               ; preds = %56
  br label %58

58:                                               ; preds = %57
  %59 = call i32 @gettimeofday(ptr noundef %6, ptr noundef null) #7
  %60 = getelementptr inbounds [20 x i8], ptr %7, i64 0, i64 0
  call void @slurm_diff_tv_str(ptr noundef %5, ptr noundef %6, ptr noundef %60, i32 noundef 20, ptr noundef @__func__.prep_g_epilog, i64 noundef 0, ptr noundef %8)
  br label %61

61:                                               ; preds = %58
  br label %62

62:                                               ; preds = %61
  %63 = load i32, ptr %9, align 4
  call void @llvm.lifetime.end.p0(i64 4, ptr %9) #7
  call void @llvm.lifetime.end.p0(i64 8, ptr %8) #7
  call void @llvm.lifetime.end.p0(i64 20, ptr %7) #7
  call void @llvm.lifetime.end.p0(i64 16, ptr %6) #7
  call void @llvm.lifetime.end.p0(i64 16, ptr %5) #7
  ret i32 %63
}