; Function Attrs: nounwind uwtable
define dso_local i32 @prep_g_epilog(ptr noundef %0, ptr noundef %1) local_unnamed_addr #0 {
  %3 = alloca %struct.timeval, align 8
  %4 = alloca %struct.timeval, align 8
  %5 = alloca [20 x i8], align 16
  %6 = alloca i64, align 8
  call void @llvm.lifetime.start.p0(i64 16, ptr nonnull %3) #9
  call void @llvm.lifetime.start.p0(i64 16, ptr nonnull %4) #9
  call void @llvm.lifetime.start.p0(i64 20, ptr nonnull %5) #9
  call void @llvm.memset.p0.i64(ptr noundef nonnull align 16 dereferenceable(20) %5, i8 0, i64 20, i1 false)
  call void @llvm.lifetime.start.p0(i64 8, ptr nonnull %6) #9
  %7 = call i32 @gettimeofday(ptr noundef nonnull %3, ptr noundef null) #9
  %8 = tail call i32 @pthread_rwlock_rdlock(ptr noundef nonnull @g_context_lock) #9
  %.not = icmp eq i32 %8, 0
  br i1 %.not, label %.preheader, label %11

.preheader:                                       ; preds = %2
  %9 = load i32, ptr @g_context_cnt, align 4
  %10 = icmp sgt i32 %9, 0
  br i1 %10, label %.lr.ph, label %._crit_edge

11:                                               ; preds = %2
  %12 = tail call ptr @__errno_location() #10
  store i32 %8, ptr %12, align 4
  tail call void (ptr, ...) @fatal_abort(ptr noundef nonnull @.str.8, ptr noundef nonnull @__func__.prep_g_epilog) #11
  unreachable

._crit_edge:                                      ; preds = %.lr.ph, %.preheader
  %.0.lcssa = phi i32 [ 0, %.preheader ], [ %17, %.lr.ph ]
  %13 = tail call i32 @pthread_rwlock_unlock(ptr noundef nonnull @g_context_lock) #9
  %.not13 = icmp eq i32 %13, 0
  br i1 %.not13, label %25, label %23

.lr.ph:                                           ; preds = %.preheader, %.lr.ph
  %indvars.iv = phi i64 [ %indvars.iv.next, %.lr.ph ], [ 0, %.preheader ]
  %14 = load ptr, ptr @ops, align 8
  %15 = getelementptr inbounds nuw %struct.prep_ops_t, ptr %14, i64 %indvars.iv, i32 2
  %16 = load ptr, ptr %15, align 8
  %17 = tail call i32 %16(ptr noundef %0, ptr noundef %1) #9
  %indvars.iv.next = add nuw nsw i64 %indvars.iv, 1
  %18 = load i32, ptr @g_context_cnt, align 4
  %19 = sext i32 %18 to i64
  %20 = icmp slt i64 %indvars.iv.next, %19
  %21 = icmp eq i32 %17, 0
  %22 = select i1 %20, i1 %21, i1 false
  br i1 %22, label %.lr.ph, label %._crit_edge, !llvm.loop !18

23:                                               ; preds = %._crit_edge
  %24 = tail call ptr @__errno_location() #10
  store i32 %13, ptr %24, align 4
  tail call void (ptr, ...) @fatal_abort(ptr noundef nonnull @.str.7, ptr noundef nonnull @__func__.prep_g_epilog) #11
  unreachable

25:                                               ; preds = %._crit_edge
  %26 = call i32 @gettimeofday(ptr noundef nonnull %4, ptr noundef null) #9
  call void @slurm_diff_tv_str(ptr noundef nonnull %3, ptr noundef nonnull %4, ptr noundef nonnull %5, i32 noundef 20, ptr noundef nonnull @__func__.prep_g_epilog, i64 noundef 0, ptr noundef nonnull %6) #9
  call void @llvm.lifetime.end.p0(i64 8, ptr nonnull %6) #9
  call void @llvm.lifetime.end.p0(i64 20, ptr nonnull %5) #9
  call void @llvm.lifetime.end.p0(i64 16, ptr nonnull %4) #9
  call void @llvm.lifetime.end.p0(i64 16, ptr nonnull %3) #9
  ret i32 %.0.lcssa
}